; Function Attrs: nounwind uwtable
define ptr @l___private_Lean_Meta_DecLevel_0__Lean_Meta_decAux_x3f___lambda__1(ptr noundef %0, ptr noundef %1, ptr readnone captures(none) %2, i8 zeroext %3, ptr readnone captures(none) %4, ptr noundef %5, ptr readnone captures(none) %6, ptr readnone captures(none) %7, ptr noundef %8) local_unnamed_addr #0 {
  %10 = ptrtoint ptr %0 to i64
  %11 = and i64 %10, 1
  %.not = icmp eq i64 %11, 0
  br i1 %.not, label %12, label %lean_inc.exit29

12:                                               ; preds = %9
  %.val.i = load i32, ptr %0, align 4, !tbaa !8
  %13 = icmp sgt i32 %.val.i, 0
  br i1 %13, label %14, label %16, !prof !13

14:                                               ; preds = %12
  %15 = add nuw i32 %.val.i, 1
  store i32 %15, ptr %0, align 4, !tbaa !8
  br label %lean_inc.exit29

16:                                               ; preds = %12
  %.not.i33 = icmp eq i32 %.val.i, 0
  br i1 %.not.i33, label %lean_inc.exit29, label %17

17:                                               ; preds = %16
  tail call void @lean_inc_ref_cold(ptr noundef nonnull %0) #4
  br label %lean_inc.exit29

lean_inc.exit29:                                  ; preds = %17, %16, %14, %9
  %18 = tail call ptr @l_Lean_Level_succ___override(ptr noundef %0) #4
  %19 = tail call ptr @l_Lean_assignLevelMVar___at___private_Lean_Meta_DecLevel_0__Lean_Meta_decAux_x3f___spec__2(ptr noundef %1, ptr noundef %18, i8 zeroext poison, ptr poison, ptr noundef %5, ptr poison, ptr poison, ptr noundef %8)
  %.val = load i32, ptr %19, align 4, !tbaa !8
  %20 = icmp eq i32 %.val, 1
  br i1 %20, label %21, label %38

21:                                               ; preds = %lean_inc.exit29
  %22 = getelementptr inbounds nuw i8, ptr %19, i64 8
  %23 = load ptr, ptr %22, align 8, !tbaa !4
  %24 = ptrtoint ptr %23 to i64
  %25 = and i64 %24, 1
  %.not41 = icmp eq i64 %25, 0
  br i1 %.not41, label %26, label %lean_dec.exit30

26:                                               ; preds = %21
  %27 = load i32, ptr %23, align 4, !tbaa !8
  %28 = icmp sgt i32 %27, 1
  br i1 %28, label %29, label %31, !prof !13

29:                                               ; preds = %26
  %30 = add nsw i32 %27, -1
  store i32 %30, ptr %23, align 4, !tbaa !8
  br label %lean_dec.exit30

31:                                               ; preds = %26
  %.not.i = icmp eq i32 %27, 0
  br i1 %.not.i, label %lean_dec.exit30, label %32

32:                                               ; preds = %31
  tail call void @lean_dec_ref_cold(ptr noundef nonnull %23) #4
  br label %lean_dec.exit30

lean_dec.exit30:                                  ; preds = %32, %31, %29, %21
  tail call void @lean_inc_heartbeat() #4
  %33 = tail call noalias ptr @mi_malloc_small(i64 noundef 16) #4
  %34 = icmp eq ptr %33, null
  br i1 %34, label %35, label %lean_alloc_ctor.exit

35:                                               ; preds = %lean_dec.exit30
  tail call void @lean_internal_panic_out_of_memory() #5
  unreachable

lean_alloc_ctor.exit:                             ; preds = %lean_dec.exit30
  %36 = getelementptr inbounds nuw i8, ptr %33, i64 4
  store i32 1, ptr %33, align 4, !tbaa !8
  store i32 16842768, ptr %36, align 4
  %37 = getelementptr inbounds nuw i8, ptr %33, i64 8
  store ptr %0, ptr %37, align 8, !tbaa !4
  store ptr %33, ptr %22, align 8, !tbaa !4
  br label %69

38:                                               ; preds = %lean_inc.exit29
  %39 = getelementptr inbounds nuw i8, ptr %19, i64 16
  %40 = load ptr, ptr %39, align 8, !tbaa !4
  %41 = ptrtoint ptr %40 to i64
  %42 = and i64 %41, 1
  %.not39 = icmp eq i64 %42, 0
  br i1 %.not39, label %43, label %lean_inc.exit

43:                                               ; preds = %38
  %.val.i34 = load i32, ptr %40, align 4, !tbaa !8
  %44 = icmp sgt i32 %.val.i34, 0
  br i1 %44, label %45, label %47, !prof !13

45:                                               ; preds = %43
  %46 = add nuw i32 %.val.i34, 1
  store i32 %46, ptr %40, align 4, !tbaa !8
  br label %lean_inc.exit

47:                                               ; preds = %43
  %.not.i35 = icmp eq i32 %.val.i34, 0
  br i1 %.not.i35, label %lean_inc.exit, label %48

48:                                               ; preds = %47
  tail call void @lean_inc_ref_cold(ptr noundef nonnull %40) #4
  br label %lean_inc.exit

lean_inc.exit:                                    ; preds = %48, %47, %45, %38
  %49 = ptrtoint ptr %19 to i64
  %50 = and i64 %49, 1
  %.not40 = icmp eq i64 %50, 0
  br i1 %.not40, label %51, label %lean_dec.exit

51:                                               ; preds = %lean_inc.exit
  %52 = load i32, ptr %19, align 4, !tbaa !8
  %53 = icmp sgt i32 %52, 1
  br i1 %53, label %54, label %56, !prof !13

54:                                               ; preds = %51
  %55 = add nsw i32 %52, -1
  store i32 %55, ptr %19, align 4, !tbaa !8
  br label %lean_dec.exit

56:                                               ; preds = %51
  %.not.i31 = icmp eq i32 %52, 0
  br i1 %.not.i31, label %lean_dec.exit, label %57

57:                                               ; preds = %56
  tail call void @lean_dec_ref_cold(ptr noundef nonnull %19) #4
  br label %lean_dec.exit

lean_dec.exit:                                    ; preds = %57, %56, %54, %lean_inc.exit
  tail call void @lean_inc_heartbeat() #4
  %58 = tail call noalias ptr @mi_malloc_small(i64 noundef 16) #4
  %59 = icmp eq ptr %58, null
  br i1 %59, label %60, label %lean_alloc_ctor.exit37

60:                                               ; preds = %lean_dec.exit
  tail call void @lean_internal_panic_out_of_memory() #5
  unreachable

lean_alloc_ctor.exit37:                           ; preds = %lean_dec.exit
  %61 = getelementptr inbounds nuw i8, ptr %58, i64 4
  store i32 1, ptr %58, align 4, !tbaa !8
  store i32 16842768, ptr %61, align 4
  %62 = getelementptr inbounds nuw i8, ptr %58, i64 8
  store ptr %0, ptr %62, align 8, !tbaa !4
  tail call void @lean_inc_heartbeat() #4
  %63 = tail call noalias ptr @mi_malloc_small(i64 noundef 24) #4
  %64 = icmp eq ptr %63, null
  br i1 %64, label %65, label %lean_alloc_ctor.exit38

65:                                               ; preds = %lean_alloc_ctor.exit37
  tail call void @lean_internal_panic_out_of_memory() #5
  unreachable

lean_alloc_ctor.exit38:                           ; preds = %lean_alloc_ctor.exit37
  %66 = getelementptr inbounds nuw i8, ptr %63, i64 4
  store i32 1, ptr %63, align 4, !tbaa !8
  store i32 131096, ptr %66, align 4
  %67 = getelementptr inbounds nuw i8, ptr %63, i64 8
  store ptr %58, ptr %67, align 8, !tbaa !4
  %68 = getelementptr inbounds nuw i8, ptr %63, i64 16
  store ptr %40, ptr %68, align 8, !tbaa !4
  br label %69

69:                                               ; preds = %lean_alloc_ctor.exit38, %lean_alloc_ctor.exit
  %.0 = phi ptr [ %19, %lean_alloc_ctor.exit ], [ %63, %lean_alloc_ctor.exit38 ]
  ret ptr %.0
}